
./out/mlp.elf:     file format elf32-littleriscv


Disassembly of section .text:

00000000 <_stext>:
   0:	02004137          	lui	sp,0x2004
   4:	00010113          	mv	sp,sp

00000008 <main>:
   8:	f9010113          	addi	sp,sp,-112 # 2003f90 <_edata+0x1ffff90>
   c:	06112623          	sw	ra,108(sp)
  10:	06812423          	sw	s0,104(sp)
  14:	07912223          	sw	s9,100(sp)
  18:	07a12023          	sw	s10,96(sp)
  1c:	05b12e23          	sw	s11,92(sp)
  20:	07010413          	addi	s0,sp,112
  24:	000047b7          	lui	a5,0x4
  28:	fcf42a23          	sw	a5,-44(s0)
  2c:	0000c7b7          	lui	a5,0xc
  30:	a8078793          	addi	a5,a5,-1408 # ba80 <_edata+0x7a80>
  34:	fcf42823          	sw	a5,-48(s0)
  38:	0006e7b7          	lui	a5,0x6e
  3c:	a8078793          	addi	a5,a5,-1408 # 6da80 <_edata+0x69a80>
  40:	fcf42623          	sw	a5,-52(s0)
  44:	0006e7b7          	lui	a5,0x6e
  48:	c8078793          	addi	a5,a5,-896 # 6dc80 <_edata+0x69c80>
  4c:	fcf42423          	sw	a5,-56(s0)
  50:	0006e7b7          	lui	a5,0x6e
  54:	e8078793          	addi	a5,a5,-384 # 6de80 <_edata+0x69e80>
  58:	fcf42223          	sw	a5,-60(s0)
  5c:	000767b7          	lui	a5,0x76
  60:	e8078793          	addi	a5,a5,-384 # 75e80 <_edata+0x71e80>
  64:	fcf42023          	sw	a5,-64(s0)
  68:	000767b7          	lui	a5,0x76
  6c:	f8078793          	addi	a5,a5,-128 # 75f80 <_edata+0x71f80>
  70:	faf42e23          	sw	a5,-68(s0)
  74:	000767b7          	lui	a5,0x76
  78:	08078793          	addi	a5,a5,128 # 76080 <_edata+0x72080>
  7c:	faf42c23          	sw	a5,-72(s0)
  80:	000777b7          	lui	a5,0x77
  84:	a8078793          	addi	a5,a5,-1408 # 76a80 <_edata+0x72a80>
  88:	faf42a23          	sw	a5,-76(s0)
  8c:	000777b7          	lui	a5,0x77
  90:	aa878793          	addi	a5,a5,-1368 # 76aa8 <_edata+0x72aa8>
  94:	faf42823          	sw	a5,-80(s0)
  98:	000777b7          	lui	a5,0x77
  9c:	ad078793          	addi	a5,a5,-1328 # 76ad0 <_edata+0x72ad0>
  a0:	faf42623          	sw	a5,-84(s0)
  a4:	00000d93          	li	s11,0
  a8:	b00027f3          	csrr	a5,mcycle
  ac:	faf42423          	sw	a5,-88(s0)
  b0:	b80027f3          	csrr	a5,mcycleh
  b4:	faf42223          	sw	a5,-92(s0)
  b8:	b02027f3          	csrr	a5,minstret
  bc:	faf42023          	sw	a5,-96(s0)
  c0:	b82027f3          	csrr	a5,minstreth
  c4:	f8f42e23          	sw	a5,-100(s0)
  c8:	00000d13          	li	s10,0
  cc:	0a80006f          	j	174 <main+0x16c>
  d0:	000d0713          	mv	a4,s10
  d4:	000017b7          	lui	a5,0x1
  d8:	c4078793          	addi	a5,a5,-960 # c40 <_etext+0x808>
  dc:	02f707b3          	mul	a5,a4,a5
  e0:	fd442703          	lw	a4,-44(s0)
  e4:	00f70533          	add	a0,a4,a5
  e8:	08000793          	li	a5,128
  ec:	31000713          	li	a4,784
  f0:	fc842683          	lw	a3,-56(s0)
  f4:	fcc42603          	lw	a2,-52(s0)
  f8:	fd042583          	lw	a1,-48(s0)
  fc:	140000ef          	jal	ra,23c <fully_connected>
 100:	04000793          	li	a5,64
 104:	08000713          	li	a4,128
 108:	fbc42683          	lw	a3,-68(s0)
 10c:	fc042603          	lw	a2,-64(s0)
 110:	fc442583          	lw	a1,-60(s0)
 114:	fc842503          	lw	a0,-56(s0)
 118:	124000ef          	jal	ra,23c <fully_connected>
 11c:	00a00793          	li	a5,10
 120:	04000713          	li	a4,64
 124:	fb042683          	lw	a3,-80(s0)
 128:	fb442603          	lw	a2,-76(s0)
 12c:	fb842583          	lw	a1,-72(s0)
 130:	fbc42503          	lw	a0,-68(s0)
 134:	108000ef          	jal	ra,23c <fully_connected>
 138:	fb042503          	lw	a0,-80(s0)
 13c:	268000ef          	jal	ra,3a4 <max>
 140:	00050693          	mv	a3,a0
 144:	000d0793          	mv	a5,s10
 148:	00279793          	slli	a5,a5,0x2
 14c:	fac42703          	lw	a4,-84(s0)
 150:	00f707b3          	add	a5,a4,a5
 154:	0007a783          	lw	a5,0(a5)
 158:	00f69863          	bne	a3,a5,168 <main+0x160>
 15c:	000d8793          	mv	a5,s11
 160:	00178793          	addi	a5,a5,1
 164:	00078d93          	mv	s11,a5
 168:	000d0793          	mv	a5,s10
 16c:	00178793          	addi	a5,a5,1
 170:	00078d13          	mv	s10,a5
 174:	000d0713          	mv	a4,s10
 178:	00900793          	li	a5,9
 17c:	f4e7fae3          	bgeu	a5,a4,d0 <main+0xc8>
 180:	b00027f3          	csrr	a5,mcycle
 184:	f8f42c23          	sw	a5,-104(s0)
 188:	b80027f3          	csrr	a5,mcycleh
 18c:	fcf42e23          	sw	a5,-36(s0)
 190:	b02027f3          	csrr	a5,minstret
 194:	f8f42a23          	sw	a5,-108(s0)
 198:	b82027f3          	csrr	a5,minstreth
 19c:	fcf42c23          	sw	a5,-40(s0)
 1a0:	f9842703          	lw	a4,-104(s0)
 1a4:	fa842783          	lw	a5,-88(s0)
 1a8:	40f707b3          	sub	a5,a4,a5
 1ac:	00078e13          	mv	t3,a5
 1b0:	000e0713          	mv	a4,t3
 1b4:	f9842783          	lw	a5,-104(s0)
 1b8:	00e7f863          	bgeu	a5,a4,1c8 <main+0x1c0>
 1bc:	fdc42783          	lw	a5,-36(s0)
 1c0:	fff78793          	addi	a5,a5,-1
 1c4:	fcf42e23          	sw	a5,-36(s0)
 1c8:	fdc42703          	lw	a4,-36(s0)
 1cc:	fa442783          	lw	a5,-92(s0)
 1d0:	40f707b3          	sub	a5,a4,a5
 1d4:	00078e93          	mv	t4,a5
 1d8:	f9442703          	lw	a4,-108(s0)
 1dc:	fa042783          	lw	a5,-96(s0)
 1e0:	40f707b3          	sub	a5,a4,a5
 1e4:	00078f13          	mv	t5,a5
 1e8:	000f0713          	mv	a4,t5
 1ec:	f9442783          	lw	a5,-108(s0)
 1f0:	00e7f863          	bgeu	a5,a4,200 <main+0x1f8>
 1f4:	fd842783          	lw	a5,-40(s0)
 1f8:	fff78793          	addi	a5,a5,-1
 1fc:	fcf42c23          	sw	a5,-40(s0)
 200:	fd842703          	lw	a4,-40(s0)
 204:	f9c42783          	lw	a5,-100(s0)
 208:	40f707b3          	sub	a5,a4,a5
 20c:	00078f93          	mv	t6,a5
 210:	000187b7          	lui	a5,0x18
 214:	69f78c93          	addi	s9,a5,1695 # 1869f <_edata+0x1469f>
 218:	00000793          	li	a5,0
 21c:	00078513          	mv	a0,a5
 220:	06c12083          	lw	ra,108(sp)
 224:	06812403          	lw	s0,104(sp)
 228:	06412c83          	lw	s9,100(sp)
 22c:	06012d03          	lw	s10,96(sp)
 230:	05c12d83          	lw	s11,92(sp)
 234:	07010113          	addi	sp,sp,112
 238:	00008067          	ret

0000023c <fully_connected>:
 23c:	fc010113          	addi	sp,sp,-64
 240:	02812e23          	sw	s0,60(sp)
 244:	04010413          	addi	s0,sp,64
 248:	fca42e23          	sw	a0,-36(s0)
 24c:	fcb42c23          	sw	a1,-40(s0)
 250:	fcc42a23          	sw	a2,-44(s0)
 254:	fcd42823          	sw	a3,-48(s0)
 258:	fce42623          	sw	a4,-52(s0)
 25c:	fcf42423          	sw	a5,-56(s0)
 260:	fe042623          	sw	zero,-20(s0)
 264:	1200006f          	j	384 <fully_connected+0x148>
 268:	fec42783          	lw	a5,-20(s0)
 26c:	00279793          	slli	a5,a5,0x2
 270:	fd042703          	lw	a4,-48(s0)
 274:	00f707b3          	add	a5,a4,a5
 278:	0007a023          	sw	zero,0(a5)
 27c:	fe042423          	sw	zero,-24(s0)
 280:	0780006f          	j	2f8 <fully_connected+0xbc>
 284:	fec42783          	lw	a5,-20(s0)
 288:	00279793          	slli	a5,a5,0x2
 28c:	fd042703          	lw	a4,-48(s0)
 290:	00f707b3          	add	a5,a4,a5
 294:	0007a683          	lw	a3,0(a5)
 298:	fe842783          	lw	a5,-24(s0)
 29c:	00279793          	slli	a5,a5,0x2
 2a0:	fdc42703          	lw	a4,-36(s0)
 2a4:	00f707b3          	add	a5,a4,a5
 2a8:	0007a703          	lw	a4,0(a5)
 2ac:	fec42603          	lw	a2,-20(s0)
 2b0:	fcc42783          	lw	a5,-52(s0)
 2b4:	02f60633          	mul	a2,a2,a5
 2b8:	fe842783          	lw	a5,-24(s0)
 2bc:	00f607b3          	add	a5,a2,a5
 2c0:	00279793          	slli	a5,a5,0x2
 2c4:	fd842603          	lw	a2,-40(s0)
 2c8:	00f607b3          	add	a5,a2,a5
 2cc:	0007a783          	lw	a5,0(a5)
 2d0:	02f70733          	mul	a4,a4,a5
 2d4:	fec42783          	lw	a5,-20(s0)
 2d8:	00279793          	slli	a5,a5,0x2
 2dc:	fd042603          	lw	a2,-48(s0)
 2e0:	00f607b3          	add	a5,a2,a5
 2e4:	00e68733          	add	a4,a3,a4
 2e8:	00e7a023          	sw	a4,0(a5)
 2ec:	fe842783          	lw	a5,-24(s0)
 2f0:	00178793          	addi	a5,a5,1
 2f4:	fef42423          	sw	a5,-24(s0)
 2f8:	fe842703          	lw	a4,-24(s0)
 2fc:	fcc42783          	lw	a5,-52(s0)
 300:	f8f742e3          	blt	a4,a5,284 <fully_connected+0x48>
 304:	fec42783          	lw	a5,-20(s0)
 308:	00279793          	slli	a5,a5,0x2
 30c:	fd042703          	lw	a4,-48(s0)
 310:	00f707b3          	add	a5,a4,a5
 314:	0007a683          	lw	a3,0(a5)
 318:	fec42783          	lw	a5,-20(s0)
 31c:	00279793          	slli	a5,a5,0x2
 320:	fd442703          	lw	a4,-44(s0)
 324:	00f707b3          	add	a5,a4,a5
 328:	0007a703          	lw	a4,0(a5)
 32c:	fec42783          	lw	a5,-20(s0)
 330:	00279793          	slli	a5,a5,0x2
 334:	fd042603          	lw	a2,-48(s0)
 338:	00f607b3          	add	a5,a2,a5
 33c:	00e68733          	add	a4,a3,a4
 340:	00e7a023          	sw	a4,0(a5)
 344:	fec42783          	lw	a5,-20(s0)
 348:	00279793          	slli	a5,a5,0x2
 34c:	fd042703          	lw	a4,-48(s0)
 350:	00f707b3          	add	a5,a4,a5
 354:	0007a683          	lw	a3,0(a5)
 358:	fec42783          	lw	a5,-20(s0)
 35c:	00279793          	slli	a5,a5,0x2
 360:	fd042703          	lw	a4,-48(s0)
 364:	00f70733          	add	a4,a4,a5
 368:	00068793          	mv	a5,a3
 36c:	0007d463          	bgez	a5,374 <fully_connected+0x138>
 370:	00000793          	li	a5,0
 374:	00f72023          	sw	a5,0(a4)
 378:	fec42783          	lw	a5,-20(s0)
 37c:	00178793          	addi	a5,a5,1
 380:	fef42623          	sw	a5,-20(s0)
 384:	fec42703          	lw	a4,-20(s0)
 388:	fc842783          	lw	a5,-56(s0)
 38c:	ecf74ee3          	blt	a4,a5,268 <fully_connected+0x2c>
 390:	00000013          	nop
 394:	00000013          	nop
 398:	03c12403          	lw	s0,60(sp)
 39c:	04010113          	addi	sp,sp,64
 3a0:	00008067          	ret

000003a4 <max>:
 3a4:	fd010113          	addi	sp,sp,-48
 3a8:	02812623          	sw	s0,44(sp)
 3ac:	03010413          	addi	s0,sp,48
 3b0:	fca42e23          	sw	a0,-36(s0)
 3b4:	fdc42783          	lw	a5,-36(s0)
 3b8:	0007a783          	lw	a5,0(a5)
 3bc:	fef42623          	sw	a5,-20(s0)
 3c0:	fe042423          	sw	zero,-24(s0)
 3c4:	00100793          	li	a5,1
 3c8:	fef42223          	sw	a5,-28(s0)
 3cc:	04c0006f          	j	418 <max+0x74>
 3d0:	fe442783          	lw	a5,-28(s0)
 3d4:	00279793          	slli	a5,a5,0x2
 3d8:	fdc42703          	lw	a4,-36(s0)
 3dc:	00f707b3          	add	a5,a4,a5
 3e0:	0007a783          	lw	a5,0(a5)
 3e4:	fec42703          	lw	a4,-20(s0)
 3e8:	02f75263          	bge	a4,a5,40c <max+0x68>
 3ec:	fe442783          	lw	a5,-28(s0)
 3f0:	00279793          	slli	a5,a5,0x2
 3f4:	fdc42703          	lw	a4,-36(s0)
 3f8:	00f707b3          	add	a5,a4,a5
 3fc:	0007a783          	lw	a5,0(a5)
 400:	fef42623          	sw	a5,-20(s0)
 404:	fe442783          	lw	a5,-28(s0)
 408:	fef42423          	sw	a5,-24(s0)
 40c:	fe442783          	lw	a5,-28(s0)
 410:	00178793          	addi	a5,a5,1
 414:	fef42223          	sw	a5,-28(s0)
 418:	fe442703          	lw	a4,-28(s0)
 41c:	00900793          	li	a5,9
 420:	fae7d8e3          	bge	a5,a4,3d0 <max+0x2c>
 424:	fe842783          	lw	a5,-24(s0)
 428:	00078513          	mv	a0,a5
 42c:	02c12403          	lw	s0,44(sp)
 430:	03010113          	addi	sp,sp,48
 434:	00008067          	ret
